# SymbolsHelper-Confirmed: 5.15.3 amd64 arm64
libQt5Scxml.so.5 libqt5scxml5 #MINVER#
| libqt5scxml5 #MINVER#, qtscxml-abi-5-15-8
* Build-Depends-Package: libqt5scxml5-dev
 Qt_5.0@Qt_5.0 5.10.1
 Qt_5.10@Qt_5.10 5.10.1
 Qt_5.11@Qt_5.11 5.12.2
 Qt_5.12@Qt_5.12 5.12.2
 Qt_5.13@Qt_5.13 5.14.2
 Qt_5.14@Qt_5.14 5.14.2
 Qt_5.15@Qt_5.15 5.15.1
 Qt_5.1@Qt_5.1 5.10.1
 Qt_5.2@Qt_5.2 5.10.1
 Qt_5.3@Qt_5.3 5.10.1
 Qt_5.4@Qt_5.4 5.10.1
 Qt_5.5@Qt_5.5 5.10.1
 Qt_5.6@Qt_5.6 5.10.1
 Qt_5.7@Qt_5.7 5.10.1
 Qt_5.8@Qt_5.8 5.10.1
 Qt_5.9@Qt_5.9 5.10.1
 Qt_5@Qt_5 5.10.1
 (symver)Qt_5_PRIVATE_API 0 1
 _ZN11QScxmlError16staticMetaObjectE@Qt_5 5.10.1
 _ZN11QScxmlErrorC1ERK7QStringiiS2_@Qt_5 5.10.1
 _ZN11QScxmlErrorC1ERKS_@Qt_5 5.10.1
 _ZN11QScxmlErrorC1Ev@Qt_5 5.10.1
 _ZN11QScxmlErrorC2ERK7QStringiiS2_@Qt_5 5.10.1
 _ZN11QScxmlErrorC2ERKS_@Qt_5 5.10.1
 _ZN11QScxmlErrorC2Ev@Qt_5 5.10.1
 _ZN11QScxmlErrorD1Ev@Qt_5 5.10.1
 _ZN11QScxmlErrorD2Ev@Qt_5 5.10.1
 _ZN11QScxmlErroraSERKS_@Qt_5 5.10.1
 _ZN11QScxmlEvent11setInvokeIdERK7QString@Qt_5 5.10.1
 _ZN11QScxmlEvent12setEventTypeERKNS_9EventTypeE@Qt_5 5.10.1
 _ZN11QScxmlEvent13setOriginTypeERK7QString@Qt_5 5.10.1
 _ZN11QScxmlEvent15setErrorMessageERK7QString@Qt_5 5.10.1
 _ZN11QScxmlEvent16staticMetaObjectE@Qt_5 5.10.1
 _ZN11QScxmlEvent5clearEv@Qt_5 5.10.1
 _ZN11QScxmlEvent7setDataERK8QVariant@Qt_5 5.10.1
 _ZN11QScxmlEvent7setNameERK7QString@Qt_5 5.10.1
 _ZN11QScxmlEvent8setDelayEi@Qt_5 5.10.1
 _ZN11QScxmlEvent9setOriginERK7QString@Qt_5 5.10.1
 _ZN11QScxmlEvent9setSendIdERK7QString@Qt_5 5.10.1
 _ZN11QScxmlEventC1ERKS_@Qt_5 5.10.1
 _ZN11QScxmlEventC1Ev@Qt_5 5.10.1
 _ZN11QScxmlEventC2ERKS_@Qt_5 5.10.1
 _ZN11QScxmlEventC2Ev@Qt_5 5.10.1
 _ZN11QScxmlEventD1Ev@Qt_5 5.10.1
 _ZN11QScxmlEventD2Ev@Qt_5 5.10.1
 _ZN11QScxmlEventaSERKS_@Qt_5 5.10.1
 _ZN14QScxmlCompiler11setFileNameERK7QString@Qt_5 5.10.1
 _ZN14QScxmlCompiler6LoaderC1Ev@Qt_5 5.10.1
 _ZN14QScxmlCompiler6LoaderC2Ev@Qt_5 5.10.1
 _ZN14QScxmlCompiler6LoaderD0Ev@Qt_5 5.10.1
 _ZN14QScxmlCompiler6LoaderD1Ev@Qt_5 5.10.1
 _ZN14QScxmlCompiler6LoaderD2Ev@Qt_5 5.10.1
 _ZN14QScxmlCompiler7compileEv@Qt_5 5.10.1
 _ZN14QScxmlCompiler9setLoaderEPNS_6LoaderE@Qt_5 5.10.1
 _ZN14QScxmlCompilerC1EP16QXmlStreamReader@Qt_5 5.10.1
 _ZN14QScxmlCompilerC2EP16QXmlStreamReader@Qt_5 5.10.1
 _ZN14QScxmlCompilerD1Ev@Qt_5 5.10.1
 _ZN14QScxmlCompilerD2Ev@Qt_5 5.10.1
 _ZN15QScxmlDataModel11qt_metacallEN11QMetaObject4CallEiPPv@Qt_5 5.10.1
 _ZN15QScxmlDataModel11qt_metacastEPKc@Qt_5 5.10.1
 _ZN15QScxmlDataModel15ForeachLoopBodyC1Ev@Qt_5 5.12.2
 _ZN15QScxmlDataModel15ForeachLoopBodyC2Ev@Qt_5 5.12.2
 _ZN15QScxmlDataModel15ForeachLoopBodyD0Ev@Qt_5 5.10.1
 _ZN15QScxmlDataModel15ForeachLoopBodyD1Ev@Qt_5 5.10.1
 _ZN15QScxmlDataModel15ForeachLoopBodyD2Ev@Qt_5 5.10.1
 _ZN15QScxmlDataModel15setStateMachineEP18QScxmlStateMachine@Qt_5 5.10.1
 _ZN15QScxmlDataModel16staticMetaObjectE@Qt_5 5.10.1
 _ZN15QScxmlDataModel19stateMachineChangedEP18QScxmlStateMachine@Qt_5 5.10.1
 _ZN15QScxmlDataModelC1EP7QObject@Qt_5 5.10.1
 _ZN15QScxmlDataModelC1ER22QScxmlDataModelPrivateP7QObject@Qt_5 5.10.1
 _ZN15QScxmlDataModelC2EP7QObject@Qt_5 5.10.1
 _ZN15QScxmlDataModelC2ER22QScxmlDataModelPrivateP7QObject@Qt_5 5.10.1
 _ZN15QScxmlTableDataD0Ev@Qt_5 5.10.1
 _ZN15QScxmlTableDataD1Ev@Qt_5 5.10.1
 _ZN15QScxmlTableDataD2Ev@Qt_5 5.10.1
 _ZN18QScxmlCppDataModel11qt_metacallEN11QMetaObject4CallEiPPv@Qt_5 5.10.1
 _ZN18QScxmlCppDataModel11qt_metacastEPKc@Qt_5 5.10.1
 _ZN18QScxmlCppDataModel13setScxmlEventERK11QScxmlEvent@Qt_5 5.10.1
 _ZN18QScxmlCppDataModel15evaluateForeachEiPbPN15QScxmlDataModel15ForeachLoopBodyE@Qt_5 5.10.1
 _ZN18QScxmlCppDataModel16setScxmlPropertyERK7QStringRK8QVariantS2_@Qt_5 5.10.1
 _ZN18QScxmlCppDataModel16staticMetaObjectE@Qt_5 5.10.1
 _ZN18QScxmlCppDataModel18evaluateAssignmentEiPb@Qt_5 5.10.1
 _ZN18QScxmlCppDataModel22evaluateInitializationEiPb@Qt_5 5.10.1
 _ZN18QScxmlCppDataModel5setupERK4QMapI7QString8QVariantE@Qt_5 5.10.1
 _ZN18QScxmlCppDataModelC1EP7QObject@Qt_5 5.10.1
 _ZN18QScxmlCppDataModelC2EP7QObject@Qt_5 5.10.1
 _ZN18QScxmlStateMachine10setRunningEb@Qt_5 5.10.1
 _ZN18QScxmlStateMachine11qt_metacallEN11QMetaObject4CallEiPPv@Qt_5 5.10.1
 _ZN18QScxmlStateMachine11qt_metacastEPKc@Qt_5 5.10.1
 _ZN18QScxmlStateMachine11submitEventEP11QScxmlEvent@Qt_5 5.10.1
 _ZN18QScxmlStateMachine11submitEventERK7QString@Qt_5 5.10.1
 _ZN18QScxmlStateMachine11submitEventERK7QStringRK8QVariant@Qt_5 5.10.1
 _ZN18QScxmlStateMachine12setDataModelEP15QScxmlDataModel@Qt_5 5.10.1
 _ZN18QScxmlStateMachine12setTableDataEP15QScxmlTableData@Qt_5 5.10.1
 _ZN18QScxmlStateMachine13initialValuesEv@Qt_5 5.10.1
 _ZN18QScxmlStateMachine13loaderChangedEPN14QScxmlCompiler6LoaderE@Qt_5 5.10.1
 _ZN18QScxmlStateMachine14connectToEventERK7QStringPK7QObjectPKcN2Qt14ConnectionTypeE@Qt_5 5.10.1
 _ZN18QScxmlStateMachine14connectToStateERK7QStringPK7QObjectPKcN2Qt14ConnectionTypeE@Qt_5 5.10.1
 _ZN18QScxmlStateMachine14runningChangedEb@Qt_5 5.10.1
 _ZN18QScxmlStateMachine16dataModelChangedEP15QScxmlDataModel@Qt_5 5.10.1
 _ZN18QScxmlStateMachine16setInitialValuesERK4QMapI7QString8QVariantE@Qt_5 5.10.1
 _ZN18QScxmlStateMachine16staticMetaObjectE@Qt_5 5.10.1
 _ZN18QScxmlStateMachine16tableDataChangedEP15QScxmlTableData@Qt_5 5.10.1
 _ZN18QScxmlStateMachine18cancelDelayedEventERK7QString@Qt_5 5.10.1
 _ZN18QScxmlStateMachine18connectToEventImplERK7QStringPK7QObjectPPvPN9QtPrivate15QSlotObjectBaseEN2Qt14ConnectionTypeE@Qt_5 5.10.1
 _ZN18QScxmlStateMachine18connectToStateImplERK7QStringPK7QObjectPPvPN9QtPrivate15QSlotObjectBaseEN2Qt14ConnectionTypeE@Qt_5 5.10.1
 _ZN18QScxmlStateMachine18initializedChangedEb@Qt_5 5.10.1
 _ZN18QScxmlStateMachine18reachedStableStateEv@Qt_5 5.10.1
 _ZN18QScxmlStateMachine20initialValuesChangedERK4QMapI7QString8QVariantE@Qt_5 5.10.1
 _ZN18QScxmlStateMachine22invokedServicesChangedERK7QVectorIP22QScxmlInvokableServiceE@Qt_5 5.10.1
 _ZN18QScxmlStateMachine3logERK7QStringS2_@Qt_5 5.10.1
 _ZN18QScxmlStateMachine4initEv@Qt_5 5.10.1
 _ZN18QScxmlStateMachine4stopEv@Qt_5 5.10.1
 _ZN18QScxmlStateMachine5startEv@Qt_5 5.10.1
 _ZN18QScxmlStateMachine8finishedEv@Qt_5 5.10.1
 _ZN18QScxmlStateMachine8fromDataEP9QIODeviceRK7QString@Qt_5 5.10.1
 _ZN18QScxmlStateMachine8fromFileERK7QString@Qt_5 5.10.1
 _ZN18QScxmlStateMachine9setLoaderEPN14QScxmlCompiler6LoaderE@Qt_5 5.10.1
 _ZN18QScxmlStateMachineC1EPK11QMetaObjectP7QObject@Qt_5 5.10.1
 _ZN18QScxmlStateMachineC1ER25QScxmlStateMachinePrivateP7QObject@Qt_5 5.10.1
 _ZN18QScxmlStateMachineC2EPK11QMetaObjectP7QObject@Qt_5 5.10.1
 _ZN18QScxmlStateMachineC2ER25QScxmlStateMachinePrivateP7QObject@Qt_5 5.10.1
 _ZN19QScxmlNullDataModel11qt_metacallEN11QMetaObject4CallEiPPv@Qt_5 5.10.1
 _ZN19QScxmlNullDataModel11qt_metacastEPKc@Qt_5 5.10.1
 _ZN19QScxmlNullDataModel13setScxmlEventERK11QScxmlEvent@Qt_5 5.10.1
 _ZN19QScxmlNullDataModel14evaluateToBoolEiPb@Qt_5 5.10.1
 _ZN19QScxmlNullDataModel14evaluateToVoidEiPb@Qt_5 5.10.1
 _ZN19QScxmlNullDataModel15evaluateForeachEiPbPN15QScxmlDataModel15ForeachLoopBodyE@Qt_5 5.10.1
 _ZN19QScxmlNullDataModel16evaluateToStringEiPb@Qt_5 5.10.1
 _ZN19QScxmlNullDataModel16setScxmlPropertyERK7QStringRK8QVariantS2_@Qt_5 5.10.1
 _ZN19QScxmlNullDataModel16staticMetaObjectE@Qt_5 5.10.1
 _ZN19QScxmlNullDataModel17evaluateToVariantEiPb@Qt_5 5.10.1
 _ZN19QScxmlNullDataModel18evaluateAssignmentEiPb@Qt_5 5.10.1
 _ZN19QScxmlNullDataModel22evaluateInitializationEiPb@Qt_5 5.10.1
 _ZN19QScxmlNullDataModel5setupERK4QMapI7QString8QVariantE@Qt_5 5.10.1
 _ZN19QScxmlNullDataModelC1EP7QObject@Qt_5 5.10.1
 _ZN19QScxmlNullDataModelC2EP7QObject@Qt_5 5.10.1
 _ZN19QScxmlNullDataModelD0Ev@Qt_5 5.10.1
 _ZN19QScxmlNullDataModelD1Ev@Qt_5 5.10.1
 _ZN19QScxmlNullDataModelD2Ev@Qt_5 5.10.1
 _ZN22QScxmlInvokableService11qt_metacallEN11QMetaObject4CallEiPPv@Qt_5 5.10.1
 _ZN22QScxmlInvokableService11qt_metacastEPKc@Qt_5 5.10.1
 _ZN22QScxmlInvokableService16staticMetaObjectE@Qt_5 5.10.1
 _ZN22QScxmlInvokableServiceC1EP18QScxmlStateMachineP29QScxmlInvokableServiceFactory@Qt_5 5.10.1
 _ZN22QScxmlInvokableServiceC2EP18QScxmlStateMachineP29QScxmlInvokableServiceFactory@Qt_5 5.10.1
 _ZN25QScxmlEcmaScriptDataModel11qt_metacallEN11QMetaObject4CallEiPPv@Qt_5 5.10.1
 _ZN25QScxmlEcmaScriptDataModel11qt_metacastEPKc@Qt_5 5.10.1
 _ZN25QScxmlEcmaScriptDataModel13setScxmlEventERK11QScxmlEvent@Qt_5 5.10.1
 _ZN25QScxmlEcmaScriptDataModel14evaluateToBoolEiPb@Qt_5 5.10.1
 _ZN25QScxmlEcmaScriptDataModel14evaluateToVoidEiPb@Qt_5 5.10.1
 _ZN25QScxmlEcmaScriptDataModel15evaluateForeachEiPbPN15QScxmlDataModel15ForeachLoopBodyE@Qt_5 5.10.1
 _ZN25QScxmlEcmaScriptDataModel16evaluateToStringEiPb@Qt_5 5.10.1
 _ZN25QScxmlEcmaScriptDataModel16setScxmlPropertyERK7QStringRK8QVariantS2_@Qt_5 5.10.1
 _ZN25QScxmlEcmaScriptDataModel16staticMetaObjectE@Qt_5 5.10.1
 _ZN25QScxmlEcmaScriptDataModel17evaluateToVariantEiPb@Qt_5 5.10.1
 _ZN25QScxmlEcmaScriptDataModel18evaluateAssignmentEiPb@Qt_5 5.10.1
 _ZN25QScxmlEcmaScriptDataModel22evaluateInitializationEiPb@Qt_5 5.10.1
 _ZN25QScxmlEcmaScriptDataModel5setupERK4QMapI7QString8QVariantE@Qt_5 5.10.1
 _ZN25QScxmlEcmaScriptDataModelC1EP7QObject@Qt_5 5.10.1
 _ZN25QScxmlEcmaScriptDataModelC2EP7QObject@Qt_5 5.10.1
 _ZN29QScxmlInvokableServiceFactory11qt_metacallEN11QMetaObject4CallEiPPv@Qt_5 5.10.1
 _ZN29QScxmlInvokableServiceFactory11qt_metacastEPKc@Qt_5 5.10.1
 _ZN29QScxmlInvokableServiceFactory16staticMetaObjectE@Qt_5 5.10.1
 _ZN29QScxmlInvokableServiceFactoryC1ER36QScxmlInvokableServiceFactoryPrivateP7QObject@Qt_5 5.10.1
 _ZN29QScxmlInvokableServiceFactoryC1ERKN23QScxmlExecutableContent10InvokeInfoERK7QVectorIiERKS4_INS0_13ParameterInfoEEP7QObject@Qt_5 5.10.1
 _ZN29QScxmlInvokableServiceFactoryC2ER36QScxmlInvokableServiceFactoryPrivateP7QObject@Qt_5 5.10.1
 _ZN29QScxmlInvokableServiceFactoryC2ERKN23QScxmlExecutableContent10InvokeInfoERK7QVectorIiERKS4_INS0_13ParameterInfoEEP7QObject@Qt_5 5.10.1
 _ZN31QScxmlStaticScxmlServiceFactory11qt_metacallEN11QMetaObject4CallEiPPv@Qt_5 5.10.1
 _ZN31QScxmlStaticScxmlServiceFactory11qt_metacastEPKc@Qt_5 5.10.1
 _ZN31QScxmlStaticScxmlServiceFactory16staticMetaObjectE@Qt_5 5.10.1
 _ZN31QScxmlStaticScxmlServiceFactory6invokeEP18QScxmlStateMachine@Qt_5 5.10.1
 _ZN31QScxmlStaticScxmlServiceFactoryC1EPK11QMetaObjectRKN23QScxmlExecutableContent10InvokeInfoERK7QVectorIiERKS7_INS3_13ParameterInfoEEP7QObject@Qt_5 5.10.1
 _ZN31QScxmlStaticScxmlServiceFactoryC2EPK11QMetaObjectRKN23QScxmlExecutableContent10InvokeInfoERK7QVectorIiERKS7_INS3_13ParameterInfoEEP7QObject@Qt_5 5.10.1
 _ZN32QScxmlDynamicScxmlServiceFactory11qt_metacallEN11QMetaObject4CallEiPPv@Qt_5 5.10.1
 _ZN32QScxmlDynamicScxmlServiceFactory11qt_metacastEPKc@Qt_5 5.10.1
 _ZN32QScxmlDynamicScxmlServiceFactory16staticMetaObjectE@Qt_5 5.10.1
 _ZN32QScxmlDynamicScxmlServiceFactory6invokeEP18QScxmlStateMachine@Qt_5 5.10.1
 _ZN32QScxmlDynamicScxmlServiceFactoryC1ERKN23QScxmlExecutableContent10InvokeInfoERK7QVectorIiERKS4_INS0_13ParameterInfoEEP7QObject@Qt_5 5.10.1
 _ZN32QScxmlDynamicScxmlServiceFactoryC2ERKN23QScxmlExecutableContent10InvokeInfoERK7QVectorIiERKS4_INS0_13ParameterInfoEEP7QObject@Qt_5 5.10.1
 _ZNK11QScxmlError11descriptionEv@Qt_5 5.10.1
 _ZNK11QScxmlError4lineEv@Qt_5 5.10.1
 _ZNK11QScxmlError6columnEv@Qt_5 5.10.1
 _ZNK11QScxmlError7isValidEv@Qt_5 5.10.1
 _ZNK11QScxmlError8fileNameEv@Qt_5 5.10.1
 _ZNK11QScxmlError8toStringEv@Qt_5 5.10.1
 _ZNK11QScxmlEvent10originTypeEv@Qt_5 5.10.1
 _ZNK11QScxmlEvent12errorMessageEv@Qt_5 5.10.1
 _ZNK11QScxmlEvent12isErrorEventEv@Qt_5 5.10.1
 _ZNK11QScxmlEvent4dataEv@Qt_5 5.10.1
 _ZNK11QScxmlEvent4nameEv@Qt_5 5.10.1
 _ZNK11QScxmlEvent5delayEv@Qt_5 5.10.1
 _ZNK11QScxmlEvent6originEv@Qt_5 5.10.1
 _ZNK11QScxmlEvent6sendIdEv@Qt_5 5.10.1
 _ZNK11QScxmlEvent8invokeIdEv@Qt_5 5.10.1
 _ZNK11QScxmlEvent9eventTypeEv@Qt_5 5.10.1
 _ZNK11QScxmlEvent9scxmlTypeEv@Qt_5 5.10.1
 _ZNK14QScxmlCompiler6errorsEv@Qt_5 5.10.1
 _ZNK14QScxmlCompiler6loaderEv@Qt_5 5.10.1
 _ZNK14QScxmlCompiler8fileNameEv@Qt_5 5.10.1
 _ZNK15QScxmlDataModel10metaObjectEv@Qt_5 5.10.1
 _ZNK15QScxmlDataModel12stateMachineEv@Qt_5 5.10.1
 _ZNK18QScxmlCppDataModel10metaObjectEv@Qt_5 5.10.1
 _ZNK18QScxmlCppDataModel10scxmlEventEv@Qt_5 5.10.1
 _ZNK18QScxmlCppDataModel13scxmlPropertyERK7QString@Qt_5 5.10.1
 _ZNK18QScxmlCppDataModel16hasScxmlPropertyERK7QString@Qt_5 5.10.1
 _ZNK18QScxmlCppDataModel7inStateERK7QString@Qt_5 5.10.1
 _ZNK18QScxmlStateMachine10metaObjectEv@Qt_5 5.10.1
 _ZNK18QScxmlStateMachine10stateNamesEb@Qt_5 5.10.1
 _ZNK18QScxmlStateMachine11parseErrorsEv@Qt_5 5.10.1
 _ZNK18QScxmlStateMachine13isInitializedEv@Qt_5 5.10.1
 _ZNK18QScxmlStateMachine15invokedServicesEv@Qt_5 5.10.1
 _ZNK18QScxmlStateMachine16activeStateNamesEb@Qt_5 5.10.1
 _ZNK18QScxmlStateMachine20isDispatchableTargetERK7QString@Qt_5 5.10.1
 _ZNK18QScxmlStateMachine4nameEv@Qt_5 5.10.1
 _ZNK18QScxmlStateMachine6loaderEv@Qt_5 5.10.1
 _ZNK18QScxmlStateMachine8isActiveERK7QString@Qt_5 5.10.1
 _ZNK18QScxmlStateMachine8isActiveEi@Qt_5 5.10.1
 _ZNK18QScxmlStateMachine9dataModelEv@Qt_5 5.10.1
 _ZNK18QScxmlStateMachine9isInvokedEv@Qt_5 5.10.1
 _ZNK18QScxmlStateMachine9isRunningEv@Qt_5 5.10.1
 _ZNK18QScxmlStateMachine9sessionIdEv@Qt_5 5.10.1
 _ZNK18QScxmlStateMachine9tableDataEv@Qt_5 5.10.1
 _ZNK19QScxmlNullDataModel10metaObjectEv@Qt_5 5.10.1
 _ZNK19QScxmlNullDataModel13scxmlPropertyERK7QString@Qt_5 5.10.1
 _ZNK19QScxmlNullDataModel16hasScxmlPropertyERK7QString@Qt_5 5.10.1
 _ZNK22QScxmlInvokableService10metaObjectEv@Qt_5 5.10.1
 _ZNK22QScxmlInvokableService18parentStateMachineEv@Qt_5 5.10.1
 _ZNK25QScxmlEcmaScriptDataModel10metaObjectEv@Qt_5 5.10.1
 _ZNK25QScxmlEcmaScriptDataModel13scxmlPropertyERK7QString@Qt_5 5.10.1
 _ZNK25QScxmlEcmaScriptDataModel16hasScxmlPropertyERK7QString@Qt_5 5.10.1
 _ZNK29QScxmlInvokableServiceFactory10invokeInfoEv@Qt_5 5.10.1
 _ZNK29QScxmlInvokableServiceFactory10metaObjectEv@Qt_5 5.10.1
 _ZNK29QScxmlInvokableServiceFactory10parametersEv@Qt_5 5.10.1
 _ZNK29QScxmlInvokableServiceFactory5namesEv@Qt_5 5.10.1
 _ZNK31QScxmlStaticScxmlServiceFactory10metaObjectEv@Qt_5 5.10.1
 _ZNK32QScxmlDynamicScxmlServiceFactory10metaObjectEv@Qt_5 5.10.1
 (optional=templinst|subst)_ZNSt6vectorIP29QScxmlInvokableServiceFactorySaIS1_EE14_M_fill_insertEN9__gnu_cxx17__normal_iteratorIPS1_S3_EE{size_t}RKS1_@Qt_5 5.10.1
 (optional=templinst)_ZNSt6vectorISt4pairIiP11QScxmlEventESaIS3_EE17_M_realloc_insertIJS3_EEEvN9__gnu_cxx17__normal_iteratorIPS3_S5_EEDpOT_@Qt_5 5.10.1
 (optional=templinst|subst)_ZNSt6vectorIbSaIbEE14_M_fill_insertESt13_Bit_iterator{size_t}b@Qt_5 5.10.1
 (optional=templinst)_ZNSt6vectorIiSaIiEE17_M_realloc_insertIJRKiEEEvN9__gnu_cxx17__normal_iteratorIPiS1_EEDpOT_@Qt_5 5.10.1
 (optional=templinst|subst)_ZNSt6vectorIiSaIiEE7reserveE{size_t}@Qt_5 5.10.1
 _ZTI15QScxmlDataModel@Qt_5 5.10.1
 _ZTI15QScxmlTableData@Qt_5 5.10.1
 _ZTI18QScxmlCppDataModel@Qt_5 5.10.1
 _ZTI18QScxmlStateMachine@Qt_5 5.10.1
 _ZTI19QScxmlNullDataModel@Qt_5 5.10.1
 _ZTI22QScxmlInvokableService@Qt_5 5.10.1
 _ZTI25QScxmlEcmaScriptDataModel@Qt_5 5.10.1
 _ZTI29QScxmlInvokableServiceFactory@Qt_5 5.10.1
 _ZTI31QScxmlStaticScxmlServiceFactory@Qt_5 5.10.1
 _ZTI32QScxmlDynamicScxmlServiceFactory@Qt_5 5.10.1
 _ZTIN14QScxmlCompiler6LoaderE@Qt_5 5.10.1
 _ZTIN15QScxmlDataModel15ForeachLoopBodyE@Qt_5 5.10.1
 _ZTS15QScxmlDataModel@Qt_5 5.10.1
 _ZTS15QScxmlTableData@Qt_5 5.10.1
 _ZTS18QScxmlCppDataModel@Qt_5 5.10.1
 _ZTS18QScxmlStateMachine@Qt_5 5.10.1
 _ZTS19QScxmlNullDataModel@Qt_5 5.10.1
 _ZTS22QScxmlInvokableService@Qt_5 5.10.1
 _ZTS25QScxmlEcmaScriptDataModel@Qt_5 5.10.1
 _ZTS29QScxmlInvokableServiceFactory@Qt_5 5.10.1
 _ZTS31QScxmlStaticScxmlServiceFactory@Qt_5 5.10.1
 _ZTS32QScxmlDynamicScxmlServiceFactory@Qt_5 5.10.1
 _ZTSN14QScxmlCompiler6LoaderE@Qt_5 5.10.1
 _ZTSN15QScxmlDataModel15ForeachLoopBodyE@Qt_5 5.10.1
 _ZTV15QScxmlDataModel@Qt_5 5.10.1
 _ZTV15QScxmlTableData@Qt_5 5.10.1
 _ZTV18QScxmlCppDataModel@Qt_5 5.10.1
 _ZTV18QScxmlStateMachine@Qt_5 5.10.1
 _ZTV19QScxmlNullDataModel@Qt_5 5.10.1
 _ZTV22QScxmlInvokableService@Qt_5 5.10.1
 _ZTV25QScxmlEcmaScriptDataModel@Qt_5 5.10.1
 _ZTV29QScxmlInvokableServiceFactory@Qt_5 5.10.1
 _ZTV31QScxmlStaticScxmlServiceFactory@Qt_5 5.10.1
 _ZTV32QScxmlDynamicScxmlServiceFactory@Qt_5 5.10.1
 _ZTVN14QScxmlCompiler6LoaderE@Qt_5 5.10.1
 _ZTVN15QScxmlDataModel15ForeachLoopBodyE@Qt_5 5.10.1
